target datalayout = "e-m:e-p270:32:32-p271:32:32-p272:64:64-i64:64-i128:128-f80:128-n8:16:32:64-S128"
target triple = "x86_64-pc-linux-gnu"

%struct.SDL_AudioStream = type { ptr, i32, ptr, ptr, ptr, ptr, %struct.SDL_AudioSpec, %struct.SDL_AudioSpec, ptr, ptr, float, float, ptr, %struct.SDL_AudioSpec, ptr, [8 x i32], i64, ptr, i64, i8, ptr, ptr, ptr, ptr, ptr }
%struct.SDL_AudioSpec = type { i32, i32, i32 }

; Function Attrs: nounwind uwtable
define hidden ptr @SDL_CreateAudioStream_REAL(ptr noundef %0, ptr noundef %1) #0 {
  %3 = alloca ptr, align 8
  %4 = alloca ptr, align 8
  %5 = alloca ptr, align 8
  %6 = alloca ptr, align 8
  %7 = alloca i32, align 4
  store ptr %0, ptr %4, align 8
  store ptr %1, ptr %5, align 8
  call void @SDL_ChooseAudioConverters()
  call void @SDL_SetupAudioResampler()
  call void @llvm.lifetime.start.p0(i64 8, ptr %6) #7
  %8 = call noalias ptr @SDL_calloc_REAL(i64 noundef 1, i64 noundef 232) #8
  store ptr %8, ptr %6, align 8
  %9 = load ptr, ptr %6, align 8
  %10 = icmp ne ptr %9, null
  br i1 %10, label %12, label %11

11:                                               ; preds = %2
  store ptr null, ptr %3, align 8
  store i32 1, ptr %7, align 4
  br label %49

12:                                               ; preds = %2
  %13 = load ptr, ptr %6, align 8
  %14 = getelementptr inbounds nuw %struct.SDL_AudioStream, ptr %13, i32 0, i32 10
  store float 1.000000e+00, ptr %14, align 8
  %15 = load ptr, ptr %6, align 8
  %16 = getelementptr inbounds nuw %struct.SDL_AudioStream, ptr %15, i32 0, i32 11
  store float 1.000000e+00, ptr %16, align 4
  %17 = call ptr @SDL_CreateAudioQueue(i64 noundef 8192)
  %18 = load ptr, ptr %6, align 8
  %19 = getelementptr inbounds nuw %struct.SDL_AudioStream, ptr %18, i32 0, i32 12
  store ptr %17, ptr %19, align 8
  %20 = load ptr, ptr %6, align 8
  %21 = getelementptr inbounds nuw %struct.SDL_AudioStream, ptr %20, i32 0, i32 12
  %22 = load ptr, ptr %21, align 8
  %23 = icmp ne ptr %22, null
  br i1 %23, label %26, label %24

24:                                               ; preds = %12
  %25 = load ptr, ptr %6, align 8
  call void @SDL_free_REAL(ptr noundef %25)
  store ptr null, ptr %3, align 8
  store i32 1, ptr %7, align 4
  br label %49

26:                                               ; preds = %12
  %27 = call ptr @SDL_CreateMutex_REAL()
  %28 = load ptr, ptr %6, align 8
  %29 = getelementptr inbounds nuw %struct.SDL_AudioStream, ptr %28, i32 0, i32 0
  store ptr %27, ptr %29, align 8
  %30 = load ptr, ptr %6, align 8
  %31 = getelementptr inbounds nuw %struct.SDL_AudioStream, ptr %30, i32 0, i32 0
  %32 = load ptr, ptr %31, align 8
  %33 = icmp ne ptr %32, null
  br i1 %33, label %39, label %34

34:                                               ; preds = %26
  %35 = load ptr, ptr %6, align 8
  %36 = getelementptr inbounds nuw %struct.SDL_AudioStream, ptr %35, i32 0, i32 12
  %37 = load ptr, ptr %36, align 8
  call void @SDL_free_REAL(ptr noundef %37)
  %38 = load ptr, ptr %6, align 8
  call void @SDL_free_REAL(ptr noundef %38)
  store ptr null, ptr %3, align 8
  store i32 1, ptr %7, align 4
  br label %49

39:                                               ; preds = %26
  %40 = load ptr, ptr %6, align 8
  call void @OnAudioStreamCreated(ptr noundef %40)
  %41 = load ptr, ptr %6, align 8
  %42 = load ptr, ptr %4, align 8
  %43 = load ptr, ptr %5, align 8
  %44 = call zeroext i1 @SDL_SetAudioStreamFormat_REAL(ptr noundef %41, ptr noundef %42, ptr noundef %43)
  br i1 %44, label %47, label %45

45:                                               ; preds = %39
  %46 = load ptr, ptr %6, align 8
  call void @SDL_DestroyAudioStream_REAL(ptr noundef %46)
  store ptr null, ptr %3, align 8
  store i32 1, ptr %7, align 4
  br label %49

47:                                               ; preds = %39
  %48 = load ptr, ptr %6, align 8
  store ptr %48, ptr %3, align 8
  store i32 1, ptr %7, align 4
  br label %49

49:                                               ; preds = %47, %45, %34, %24, %11
  call void @llvm.lifetime.end.p0(i64 8, ptr %6) #7
  %50 = load ptr, ptr %3, align 8
  ret ptr %50
}