; Function Attrs: nounwind uwtable
define hidden noundef ptr @SDL_CreateAudioStream_REAL(ptr noundef readonly captures(address_is_null) %0, ptr noundef readonly captures(address) %1) local_unnamed_addr #2 {
  tail call void @SDL_ChooseAudioConverters() #11
  tail call void @SDL_SetupAudioResampler() #11
  %3 = tail call noalias dereferenceable_or_null(232) ptr @SDL_calloc_REAL(i64 noundef 1, i64 noundef 232) #12
  %.not = icmp eq ptr %3, null
  br i1 %.not, label %17, label %4

4:                                                ; preds = %2
  %5 = getelementptr inbounds nuw i8, ptr %3, i64 88
  store float 1.000000e+00, ptr %5, align 8
  %6 = getelementptr inbounds nuw i8, ptr %3, i64 92
  store float 1.000000e+00, ptr %6, align 4
  %7 = tail call ptr @SDL_CreateAudioQueue(i64 noundef 8192) #11
  %8 = getelementptr inbounds nuw i8, ptr %3, i64 96
  store ptr %7, ptr %8, align 8
  %.not18 = icmp eq ptr %7, null
  br i1 %.not18, label %9, label %10

9:                                                ; preds = %4
  tail call void @SDL_free_REAL(ptr noundef nonnull %3) #11
  br label %17

10:                                               ; preds = %4
  %11 = tail call ptr @SDL_CreateMutex_REAL() #11
  store ptr %11, ptr %3, align 8
  %.not19 = icmp eq ptr %11, null
  br i1 %.not19, label %12, label %14

12:                                               ; preds = %10
  %13 = load ptr, ptr %8, align 8
  tail call void @SDL_free_REAL(ptr noundef %13) #11
  tail call void @SDL_free_REAL(ptr noundef nonnull %3) #11
  br label %17

14:                                               ; preds = %10
  tail call void @OnAudioStreamCreated(ptr noundef nonnull %3) #11
  %15 = tail call zeroext i1 @SDL_SetAudioStreamFormat_REAL(ptr noundef nonnull %3, ptr noundef %0, ptr noundef %1)
  br i1 %15, label %17, label %16

16:                                               ; preds = %14
  tail call void @SDL_DestroyAudioStream_REAL(ptr noundef nonnull %3)
  br label %17

17:                                               ; preds = %14, %2, %16, %12, %9
  %.0 = phi ptr [ null, %16 ], [ null, %12 ], [ null, %9 ], [ null, %2 ], [ %3, %14 ]
  ret ptr %.0
}